; Function Attrs: mustprogress nounwind uwtable
define hidden noundef ptr @_ZN10InlineTree22build_inline_tree_rootEv() local_unnamed_addr #0 align 2 {
  %1 = tail call align 8 ptr @llvm.threadlocal.address.p0(ptr align 8 @_ZN6Thread12_thr_currentE)
  %2 = load ptr, ptr %1, align 8
  %3 = getelementptr inbounds i8, ptr %2, i64 1808
  %4 = load ptr, ptr %3, align 8
  %5 = getelementptr inbounds i8, ptr %4, i64 128
  %6 = load ptr, ptr %5, align 8
  %7 = tail call noundef ptr @_Z23resource_allocate_bytesmN17AllocFailStrategy13AllocFailEnumE(i64 noundef 88, i32 noundef 0) #10
  %8 = getelementptr inbounds i8, ptr %6, i64 32
  %9 = load ptr, ptr %8, align 8
  %10 = load i64, ptr @MaxInlineLevel, align 8
  %11 = trunc i64 %10 to i32
  store ptr %6, ptr %7, align 8
  %12 = getelementptr inbounds i8, ptr %7, i64 8
  store ptr null, ptr %12, align 8
  %13 = getelementptr inbounds i8, ptr %7, i64 16
  store ptr %9, ptr %13, align 8
  %14 = getelementptr inbounds i8, ptr %7, i64 24
  store i8 0, ptr %14, align 8
  %15 = getelementptr inbounds i8, ptr %7, i64 32
  store ptr null, ptr %15, align 8
  %16 = getelementptr inbounds i8, ptr %7, i64 40
  %17 = tail call noundef i32 @_ZN8ciMethod22code_size_for_inliningEv(ptr noundef nonnull align 8 dereferenceable(160) %9) #10
  store i32 %17, ptr %16, align 8
  %18 = getelementptr inbounds i8, ptr %7, i64 44
  store i32 %11, ptr %18, align 4
  %19 = getelementptr inbounds i8, ptr %7, i64 48
  %20 = getelementptr inbounds i8, ptr %6, i64 296
  %21 = tail call noundef ptr @_ZN27GrowableArrayArenaAllocator8allocateEiiP5Arena(i32 noundef 2, i32 noundef 8, ptr noundef nonnull %20) #10
  store i32 0, ptr %19, align 4
  %22 = getelementptr inbounds i8, ptr %7, i64 52
  store i32 2, ptr %22, align 4
  %23 = getelementptr inbounds i8, ptr %7, i64 56
  store ptr %21, ptr %23, align 8
  tail call void @llvm.memset.p0.i64(ptr noundef nonnull align 8 dereferenceable(16) %21, i8 0, i64 16, i1 false)
  %24 = getelementptr inbounds i8, ptr %7, i64 64
  %25 = ptrtoint ptr %20 to i64
  store i64 %25, ptr %24, align 8
  %26 = getelementptr inbounds i8, ptr %7, i64 72
  store ptr null, ptr %26, align 8
  ret ptr %7
}